target datalayout = "e-m:e-p270:32:32-p271:32:32-p272:64:64-i64:64-i128:128-f80:128-n8:16:32:64-S128"
target triple = "x86_64-pc-linux-gnu"

%struct.IDAMemRec = type { double, ptr, ptr, i32, double, double, ptr, i32, ptr, ptr, i32, ptr, ptr, i32, i32, double, double, ptr, i32, i32, i32, ptr, ptr, i32, ptr, ptr, ptr, i32, double, i32, i32, double, ptr, ptr, i32, ptr, ptr, i32, i32, i32, double, ptr, ptr, [6 x ptr], [6 x double], [6 x double], [6 x double], [6 x double], [6 x double], ptr, ptr, ptr, ptr, ptr, ptr, ptr, ptr, ptr, ptr, ptr, ptr, ptr, ptr, ptr, [6 x ptr], ptr, ptr, ptr, ptr, [6 x ptr], ptr, ptr, ptr, ptr, ptr, ptr, ptr, ptr, ptr, ptr, ptr, ptr, ptr, ptr, [6 x ptr], ptr, ptr, ptr, ptr, ptr, double, ptr, ptr, i32, i32, i32, i32, i32, i32, i32, double, double, double, i32, double, i32, i32, i32, i32, double, double, double, double, double, double, double, double, double, double, double, double, double, double, i32, i32, i32, i32, i32, i64, double, i32, i64, i64, i64, i64, i64, i64, i64, i64, i64, i64, i64, i64, i64, i64, i64, i64, i64, i64, i64, i64, i64, i64, i64, i64, ptr, ptr, ptr, i32, i32, i32, i32, i32, i32, i32, i32, i32, i32, i32, i32, i32, ptr, ptr, ptr, ptr, ptr, ptr, i32, i32, i32, i32, i32, i32, double, double, double, ptr, i32, ptr, ptr, double, double, double, ptr, ptr, ptr, double, double, i32, i32, i64, ptr, i32, i32, ptr, i32 }
%struct.IDAadjMemRec = type { double, double, i32, i32, double, ptr, i32, ptr, i32, ptr, ptr, i32, i64, ptr, i64, i32, ptr, ptr, ptr, ptr, i32, i32, i32, i32, i32, [6 x ptr], [6 x ptr], [6 x double], ptr, ptr, ptr, ptr, i64 }
%struct.IDABMemRec = type { i32, double, ptr, i32, i32, ptr, ptr, ptr, ptr, ptr, ptr, ptr, ptr, ptr, double, ptr, ptr, ptr }
%struct.IDASpilsMemRecB = type { ptr, ptr, ptr, ptr, ptr, ptr, ptr }

@.str = private unnamed_addr constant [10 x i8] c"IDASSPILS\00", align 1
@.str.43 = private unnamed_addr constant [25 x i8] c"Bad t for interpolation.\00", align 1
@.str.44 = private unnamed_addr constant [21 x i8] c"IDAAspilsPrecSetupBS\00", align 1

; Function Attrs: nounwind uwtable
define internal i32 @IDAAspilsPrecSetupBS(double noundef %0, ptr noundef %1, ptr noundef %2, ptr noundef %3, double noundef %4, ptr noundef %5, ptr noundef %6, ptr noundef %7, ptr noundef %8) #0 {
  %10 = alloca i32, align 4
  %11 = alloca double, align 8
  %12 = alloca ptr, align 8
  %13 = alloca ptr, align 8
  %14 = alloca ptr, align 8
  %15 = alloca double, align 8
  %16 = alloca ptr, align 8
  %17 = alloca ptr, align 8
  %18 = alloca ptr, align 8
  %19 = alloca ptr, align 8
  %20 = alloca ptr, align 8
  %21 = alloca ptr, align 8
  %22 = alloca ptr, align 8
  %23 = alloca ptr, align 8
  %24 = alloca i32, align 4
  %25 = alloca i32, align 4
  store double %0, ptr %11, align 8, !tbaa !28
  store ptr %1, ptr %12, align 8, !tbaa !49
  store ptr %2, ptr %13, align 8, !tbaa !49
  store ptr %3, ptr %14, align 8, !tbaa !49
  store double %4, ptr %15, align 8, !tbaa !28
  store ptr %5, ptr %16, align 8, !tbaa !3
  store ptr %6, ptr %17, align 8, !tbaa !49
  store ptr %7, ptr %18, align 8, !tbaa !49
  store ptr %8, ptr %19, align 8, !tbaa !49
  call void @llvm.lifetime.start.p0(i64 8, ptr %20) #5
  call void @llvm.lifetime.start.p0(i64 8, ptr %21) #5
  call void @llvm.lifetime.start.p0(i64 8, ptr %22) #5
  call void @llvm.lifetime.start.p0(i64 8, ptr %23) #5
  call void @llvm.lifetime.start.p0(i64 4, ptr %24) #5
  %26 = load ptr, ptr %16, align 8, !tbaa !3
  store ptr %26, ptr %20, align 8, !tbaa !9
  %27 = load ptr, ptr %20, align 8, !tbaa !9
  %28 = getelementptr inbounds nuw %struct.IDAMemRec, ptr %27, i32 0, i32 204
  %29 = load ptr, ptr %28, align 8, !tbaa !67
  store ptr %29, ptr %21, align 8, !tbaa !68
  %30 = load ptr, ptr %21, align 8, !tbaa !68
  %31 = getelementptr inbounds nuw %struct.IDAadjMemRec, ptr %30, i32 0, i32 7
  %32 = load ptr, ptr %31, align 8, !tbaa !92
  store ptr %32, ptr %23, align 8, !tbaa !75
  %33 = load ptr, ptr %23, align 8, !tbaa !75
  %34 = getelementptr inbounds nuw %struct.IDABMemRec, ptr %33, i32 0, i32 10
  %35 = load ptr, ptr %34, align 8, !tbaa !86
  store ptr %35, ptr %22, align 8, !tbaa !87
  %36 = load ptr, ptr %21, align 8, !tbaa !68
  %37 = getelementptr inbounds nuw %struct.IDAadjMemRec, ptr %36, i32 0, i32 24
  %38 = load i32, ptr %37, align 8, !tbaa !93
  %39 = icmp eq i32 %38, 0
  br i1 %39, label %40, label %85

40:                                               ; preds = %9
  %41 = load ptr, ptr %21, align 8, !tbaa !68
  %42 = getelementptr inbounds nuw %struct.IDAadjMemRec, ptr %41, i32 0, i32 23
  %43 = load i32, ptr %42, align 4, !tbaa !101
  %44 = icmp ne i32 %43, 0
  br i1 %44, label %45, label %64

45:                                               ; preds = %40
  %46 = load ptr, ptr %21, align 8, !tbaa !68
  %47 = getelementptr inbounds nuw %struct.IDAadjMemRec, ptr %46, i32 0, i32 17
  %48 = load ptr, ptr %47, align 8, !tbaa !94
  %49 = load ptr, ptr %20, align 8, !tbaa !9
  %50 = load double, ptr %11, align 8, !tbaa !28
  %51 = load ptr, ptr %21, align 8, !tbaa !68
  %52 = getelementptr inbounds nuw %struct.IDAadjMemRec, ptr %51, i32 0, i32 28
  %53 = load ptr, ptr %52, align 8, !tbaa !95
  %54 = load ptr, ptr %21, align 8, !tbaa !68
  %55 = getelementptr inbounds nuw %struct.IDAadjMemRec, ptr %54, i32 0, i32 29
  %56 = load ptr, ptr %55, align 8, !tbaa !96
  %57 = load ptr, ptr %21, align 8, !tbaa !68
  %58 = getelementptr inbounds nuw %struct.IDAadjMemRec, ptr %57, i32 0, i32 30
  %59 = load ptr, ptr %58, align 8, !tbaa !102
  %60 = load ptr, ptr %21, align 8, !tbaa !68
  %61 = getelementptr inbounds nuw %struct.IDAadjMemRec, ptr %60, i32 0, i32 31
  %62 = load ptr, ptr %61, align 8, !tbaa !103
  %63 = call i32 %48(ptr noundef %49, double noundef %50, ptr noundef %53, ptr noundef %56, ptr noundef %59, ptr noundef %62)
  store i32 %63, ptr %24, align 4, !tbaa !7
  br label %77

64:                                               ; preds = %40
  %65 = load ptr, ptr %21, align 8, !tbaa !68
  %66 = getelementptr inbounds nuw %struct.IDAadjMemRec, ptr %65, i32 0, i32 17
  %67 = load ptr, ptr %66, align 8, !tbaa !94
  %68 = load ptr, ptr %20, align 8, !tbaa !9
  %69 = load double, ptr %11, align 8, !tbaa !28
  %70 = load ptr, ptr %21, align 8, !tbaa !68
  %71 = getelementptr inbounds nuw %struct.IDAadjMemRec, ptr %70, i32 0, i32 28
  %72 = load ptr, ptr %71, align 8, !tbaa !95
  %73 = load ptr, ptr %21, align 8, !tbaa !68
  %74 = getelementptr inbounds nuw %struct.IDAadjMemRec, ptr %73, i32 0, i32 29
  %75 = load ptr, ptr %74, align 8, !tbaa !96
  %76 = call i32 %67(ptr noundef %68, double noundef %69, ptr noundef %72, ptr noundef %75, ptr noundef null, ptr noundef null)
  store i32 %76, ptr %24, align 4, !tbaa !7
  br label %77

77:                                               ; preds = %64, %45
  %78 = load i32, ptr %24, align 4, !tbaa !7
  %79 = icmp ne i32 %78, 0
  br i1 %79, label %80, label %84

80:                                               ; preds = %77
  %81 = load ptr, ptr %23, align 8, !tbaa !75
  %82 = getelementptr inbounds nuw %struct.IDABMemRec, ptr %81, i32 0, i32 2
  %83 = load ptr, ptr %82, align 8, !tbaa !80
  call void (ptr, i32, ptr, ptr, ptr, ...) @IDAProcessError(ptr noundef %83, i32 noundef -1, ptr noundef @.str, ptr noundef @.str.44, ptr noundef @.str.43)
  store i32 -1, ptr %10, align 4
  store i32 1, ptr %25, align 4
  br label %114

84:                                               ; preds = %77
  br label %85

85:                                               ; preds = %84, %9
  %86 = load ptr, ptr %22, align 8, !tbaa !87
  %87 = getelementptr inbounds nuw %struct.IDASpilsMemRecB, ptr %86, i32 0, i32 3
  %88 = load ptr, ptr %87, align 8, !tbaa !99
  %89 = load double, ptr %11, align 8, !tbaa !28
  %90 = load ptr, ptr %21, align 8, !tbaa !68
  %91 = getelementptr inbounds nuw %struct.IDAadjMemRec, ptr %90, i32 0, i32 28
  %92 = load ptr, ptr %91, align 8, !tbaa !95
  %93 = load ptr, ptr %21, align 8, !tbaa !68
  %94 = getelementptr inbounds nuw %struct.IDAadjMemRec, ptr %93, i32 0, i32 29
  %95 = load ptr, ptr %94, align 8, !tbaa !96
  %96 = load ptr, ptr %21, align 8, !tbaa !68
  %97 = getelementptr inbounds nuw %struct.IDAadjMemRec, ptr %96, i32 0, i32 30
  %98 = load ptr, ptr %97, align 8, !tbaa !102
  %99 = load ptr, ptr %21, align 8, !tbaa !68
  %100 = getelementptr inbounds nuw %struct.IDAadjMemRec, ptr %99, i32 0, i32 31
  %101 = load ptr, ptr %100, align 8, !tbaa !103
  %102 = load ptr, ptr %12, align 8, !tbaa !49
  %103 = load ptr, ptr %13, align 8, !tbaa !49
  %104 = load ptr, ptr %14, align 8, !tbaa !49
  %105 = load double, ptr %15, align 8, !tbaa !28
  %106 = load ptr, ptr %23, align 8, !tbaa !75
  %107 = getelementptr inbounds nuw %struct.IDABMemRec, ptr %106, i32 0, i32 9
  %108 = load ptr, ptr %107, align 8, !tbaa !97
  %109 = load ptr, ptr %17, align 8, !tbaa !49
  %110 = load ptr, ptr %18, align 8, !tbaa !49
  %111 = load ptr, ptr %19, align 8, !tbaa !49
  %112 = call i32 %88(double noundef %89, ptr noundef %92, ptr noundef %95, ptr noundef %98, ptr noundef %101, ptr noundef %102, ptr noundef %103, ptr noundef %104, double noundef %105, ptr noundef %108, ptr noundef %109, ptr noundef %110, ptr noundef %111)
  store i32 %112, ptr %24, align 4, !tbaa !7
  %113 = load i32, ptr %24, align 4, !tbaa !7
  store i32 %113, ptr %10, align 4
  store i32 1, ptr %25, align 4
  br label %114

114:                                              ; preds = %85, %80
  call void @llvm.lifetime.end.p0(i64 4, ptr %24) #5
  call void @llvm.lifetime.end.p0(i64 8, ptr %23) #5
  call void @llvm.lifetime.end.p0(i64 8, ptr %22) #5
  call void @llvm.lifetime.end.p0(i64 8, ptr %21) #5
  call void @llvm.lifetime.end.p0(i64 8, ptr %20) #5
  %115 = load i32, ptr %10, align 4
  ret i32 %115
}