; Function Attrs: nounwind uwtable
define internal i32 @IDAAspilsPrecSetupBS(double noundef %0, ptr noundef %1, ptr noundef %2, ptr noundef %3, double noundef %4, ptr noundef %5, ptr noundef %6, ptr noundef %7, ptr noundef %8) #0 {
  %10 = getelementptr inbounds nuw i8, ptr %5, i64 1816
  %11 = load ptr, ptr %10, align 8, !tbaa !55
  %12 = getelementptr inbounds nuw i8, ptr %11, i64 48
  %13 = load ptr, ptr %12, align 8, !tbaa !71
  %14 = getelementptr inbounds nuw i8, ptr %13, i64 72
  %15 = load ptr, ptr %14, align 8, !tbaa !67
  %16 = getelementptr inbounds nuw i8, ptr %11, i64 168
  %17 = load i32, ptr %16, align 8, !tbaa !72
  %18 = icmp eq i32 %17, 0
  br i1 %18, label %19, label %40

19:                                               ; preds = %9
  %20 = getelementptr inbounds nuw i8, ptr %11, i64 164
  %21 = load i32, ptr %20, align 4, !tbaa !79
  %.not = icmp eq i32 %21, 0
  %22 = getelementptr inbounds nuw i8, ptr %11, i64 128
  %23 = load ptr, ptr %22, align 8, !tbaa !73
  %24 = getelementptr inbounds nuw i8, ptr %11, i64 320
  %25 = load ptr, ptr %24, align 8, !tbaa !74
  %26 = getelementptr inbounds nuw i8, ptr %11, i64 328
  %27 = load ptr, ptr %26, align 8, !tbaa !75
  br i1 %.not, label %34, label %28

28:                                               ; preds = %19
  %29 = getelementptr inbounds nuw i8, ptr %11, i64 336
  %30 = load ptr, ptr %29, align 8, !tbaa !80
  %31 = getelementptr inbounds nuw i8, ptr %11, i64 344
  %32 = load ptr, ptr %31, align 8, !tbaa !81
  %33 = tail call i32 %23(ptr noundef nonnull %5, double noundef %0, ptr noundef %25, ptr noundef %27, ptr noundef %30, ptr noundef %32) #5
  br label %36

34:                                               ; preds = %19
  %35 = tail call i32 %23(ptr noundef nonnull %5, double noundef %0, ptr noundef %25, ptr noundef %27, ptr noundef null, ptr noundef null) #5
  br label %36

36:                                               ; preds = %34, %28
  %.0 = phi i32 [ %33, %28 ], [ %35, %34 ]
  %.not36 = icmp eq i32 %.0, 0
  br i1 %.not36, label %40, label %37

37:                                               ; preds = %36
  %38 = getelementptr inbounds nuw i8, ptr %13, i64 16
  %39 = load ptr, ptr %38, align 8, !tbaa !66
  tail call void (ptr, i32, ptr, ptr, ptr, ...) @IDAProcessError(ptr noundef %39, i32 noundef -1, ptr noundef nonnull @.str, ptr noundef nonnull @.str.44, ptr noundef nonnull @.str.43) #5
  br label %54

40:                                               ; preds = %36, %9
  %41 = getelementptr inbounds nuw i8, ptr %15, i64 24
  %42 = load ptr, ptr %41, align 8, !tbaa !77
  %43 = getelementptr inbounds nuw i8, ptr %11, i64 320
  %44 = load ptr, ptr %43, align 8, !tbaa !74
  %45 = getelementptr inbounds nuw i8, ptr %11, i64 328
  %46 = load ptr, ptr %45, align 8, !tbaa !75
  %47 = getelementptr inbounds nuw i8, ptr %11, i64 336
  %48 = load ptr, ptr %47, align 8, !tbaa !80
  %49 = getelementptr inbounds nuw i8, ptr %11, i64 344
  %50 = load ptr, ptr %49, align 8, !tbaa !81
  %51 = getelementptr inbounds nuw i8, ptr %13, i64 64
  %52 = load ptr, ptr %51, align 8, !tbaa !76
  %53 = tail call i32 %42(double noundef %0, ptr noundef %44, ptr noundef %46, ptr noundef %48, ptr noundef %50, ptr noundef %1, ptr noundef %2, ptr noundef %3, double noundef %4, ptr noundef %52, ptr noundef %6, ptr noundef %7, ptr noundef %8) #5
  br label %54

54:                                               ; preds = %40, %37
  %.035 = phi i32 [ -1, %37 ], [ %53, %40 ]
  ret i32 %.035
}